; Function Attrs: mustprogress uwtable
define noundef zeroext i1 @_ZN32pxrInternal_v0_24__pxrReserved__17UsdSchemaRegistry18IsAppliedAPISchemaERKNS_7TfTokenE(ptr nocapture noundef nonnull readonly align 8 dereferenceable(8) %0) local_unnamed_addr #0 align 2 {
  %2 = tail call noundef ptr @_ZN32pxrInternal_v0_24__pxrReserved__17UsdSchemaRegistry14FindSchemaInfoERKNS_7TfTokenE(ptr noundef nonnull readonly align 8 dereferenceable(8) %0)
  %.not.i = icmp eq ptr %2, null
  br i1 %.not.i, label %_ZN32pxrInternal_v0_24__pxrReserved__17UsdSchemaRegistry13GetSchemaKindERKNS_7TfTokenE.exit, label %3

3:                                                ; preds = %1
  %4 = getelementptr inbounds nuw i8, ptr %2, i64 28
  %5 = load i32, ptr %4, align 4
  %6 = add i32 %5, -5
  %7 = icmp ult i32 %6, 2
  br label %_ZN32pxrInternal_v0_24__pxrReserved__17UsdSchemaRegistry13GetSchemaKindERKNS_7TfTokenE.exit

_ZN32pxrInternal_v0_24__pxrReserved__17UsdSchemaRegistry13GetSchemaKindERKNS_7TfTokenE.exit: ; preds = %1, %3
  %8 = phi i1 [ %7, %3 ], [ false, %1 ]
  ret i1 %8
}